; Function Attrs: nounwind uwtable
define hidden void @_glfwFocusWindowNull(ptr noundef %0) local_unnamed_addr #0 {
  %2 = load ptr, ptr getelementptr inbounds nuw (i8, ptr @_glfw, i64 142760), align 8, !tbaa !82
  %3 = icmp eq ptr %2, %0
  br i1 %3, label %27, label %4

4:                                                ; preds = %1
  %5 = getelementptr inbounds nuw i8, ptr %0, i64 3384
  %6 = load i32, ptr %5, align 8, !tbaa !65
  %.not = icmp eq i32 %6, 0
  br i1 %.not, label %27, label %7

7:                                                ; preds = %4
  store ptr %0, ptr getelementptr inbounds nuw (i8, ptr @_glfw, i64 142760), align 8, !tbaa !82
  %.not10 = icmp eq ptr %2, null
  br i1 %.not10, label %_glfwIconifyWindowNull.exit, label %8

8:                                                ; preds = %7
  tail call void @_glfwInputWindowFocus(ptr noundef nonnull %2, i32 noundef 0) #11
  %9 = getelementptr inbounds nuw i8, ptr %2, i64 80
  %10 = load ptr, ptr %9, align 8, !tbaa !3
  %.not11 = icmp eq ptr %10, null
  br i1 %.not11, label %_glfwIconifyWindowNull.exit, label %11

11:                                               ; preds = %8
  %12 = getelementptr inbounds nuw i8, ptr %2, i64 16
  %13 = load i32, ptr %12, align 8, !tbaa !152
  %.not12 = icmp eq i32 %13, 0
  br i1 %.not12, label %_glfwIconifyWindowNull.exit, label %14

14:                                               ; preds = %11
  %15 = load ptr, ptr getelementptr inbounds nuw (i8, ptr @_glfw, i64 142760), align 8, !tbaa !82
  %16 = icmp eq ptr %15, %2
  br i1 %16, label %17, label %18

17:                                               ; preds = %14
  store ptr null, ptr getelementptr inbounds nuw (i8, ptr @_glfw, i64 142760), align 8, !tbaa !82
  tail call void @_glfwInputWindowFocus(ptr noundef nonnull %2, i32 noundef 0) #11
  br label %18

18:                                               ; preds = %17, %14
  %19 = getelementptr inbounds nuw i8, ptr %2, i64 3388
  %20 = load i32, ptr %19, align 4, !tbaa !153
  %.not.i = icmp eq i32 %20, 0
  br i1 %.not.i, label %21, label %_glfwIconifyWindowNull.exit

21:                                               ; preds = %18
  store i32 1, ptr %19, align 4, !tbaa !153
  tail call void @_glfwInputWindowIconify(ptr noundef nonnull %2, i32 noundef 1) #11
  %22 = load ptr, ptr %9, align 8, !tbaa !3
  %.not7.i = icmp eq ptr %22, null
  br i1 %.not7.i, label %_glfwIconifyWindowNull.exit, label %23

23:                                               ; preds = %21
  %24 = getelementptr inbounds nuw i8, ptr %22, i64 144
  %25 = load ptr, ptr %24, align 8, !tbaa !154
  %.not.i.i = icmp eq ptr %25, %2
  br i1 %.not.i.i, label %26, label %_glfwIconifyWindowNull.exit

26:                                               ; preds = %23
  tail call void @_glfwInputMonitorWindow(ptr noundef nonnull %22, ptr noundef null) #11
  br label %_glfwIconifyWindowNull.exit

_glfwIconifyWindowNull.exit:                      ; preds = %26, %23, %21, %18, %8, %11, %7
  tail call void @_glfwInputWindowFocus(ptr noundef nonnull %0, i32 noundef 1) #11
  br label %27

27:                                               ; preds = %4, %1, %_glfwIconifyWindowNull.exit
  ret void
}